target datalayout = "e-m:e-p270:32:32-p271:32:32-p272:64:64-i64:64-i128:128-f80:128-n8:16:32:64-S128"
target triple = "x86_64-pc-linux-gnu"

%struct.wt_status = type { ptr, i32, ptr, ptr, %struct.pathspec, i32, i32, i32, i32, i32, i32, i32, i32, i32, i32, i32, ptr, [9 x [75 x i8]], i32, i32, i32, i32, i32, i32, i32, i32, i32, i32, i32, i8, %struct.wt_status_state, %struct.object_id, i32, i32, ptr, ptr, ptr, %struct.string_list, %struct.string_list, %struct.string_list, i32 }
%struct.pathspec = type { i32, i8, i32, i32, ptr }
%struct.wt_status_state = type { i32, i32, i32, i32, i32, i32, i32, i32, i32, i32, ptr, ptr, ptr, ptr, %struct.object_id, %struct.object_id, %struct.object_id }
%struct.object_id = type { [32 x i8], i32 }
%struct.string_list = type { ptr, i64, i64, i8, ptr }
%struct.string_list_item = type { ptr, ptr }

@.str.29 = private unnamed_addr constant [1 x i8] zeroinitializer, align 1
@git_gettext_enabled = external global i32, align 4
@.str.123 = private unnamed_addr constant [18 x i8] c"rebase-merge/done\00", align 1
@.str.124 = private unnamed_addr constant [29 x i8] c"rebase-merge/git-rebase-todo\00", align 1
@.str.125 = private unnamed_addr constant [28 x i8] c"git-rebase-todo is missing.\00", align 1
@.str.126 = private unnamed_addr constant [18 x i8] c"No commands done.\00", align 1
@.str.127 = private unnamed_addr constant [38 x i8] c"Last command done (%lu command done):\00", align 1
@.str.128 = private unnamed_addr constant [40 x i8] c"Last commands done (%lu commands done):\00", align 1
@.str.129 = private unnamed_addr constant [6 x i8] c"   %s\00", align 1
@.str.130 = private unnamed_addr constant [24 x i8] c"  (see more in file %s)\00", align 1
@.str.131 = private unnamed_addr constant [23 x i8] c"No commands remaining.\00", align 1
@.str.132 = private unnamed_addr constant [44 x i8] c"Next command to do (%lu remaining command):\00", align 1
@.str.133 = private unnamed_addr constant [46 x i8] c"Next commands to do (%lu remaining commands):\00", align 1
@.str.134 = private unnamed_addr constant [50 x i8] c"  (use \22git rebase --edit-todo\22 to view and edit)\00", align 1

; Function Attrs: inlinehint nounwind uwtable
define internal ptr @Q_(ptr noundef %0, ptr noundef %1, i64 noundef %2) #8 {
  %4 = alloca ptr, align 8
  %5 = alloca ptr, align 8
  %6 = alloca ptr, align 8
  %7 = alloca i64, align 8
  store ptr %0, ptr %5, align 8, !tbaa !9
  store ptr %1, ptr %6, align 8, !tbaa !9
  store i64 %2, ptr %7, align 8, !tbaa !153
  %8 = load i32, ptr @git_gettext_enabled, align 4, !tbaa !11
  %9 = icmp ne i32 %8, 0
  br i1 %9, label %19, label %10

10:                                               ; preds = %3
  %11 = load i64, ptr %7, align 8, !tbaa !153
  %12 = icmp eq i64 %11, 1
  br i1 %12, label %13, label %15

13:                                               ; preds = %10
  %14 = load ptr, ptr %5, align 8, !tbaa !9
  br label %17

15:                                               ; preds = %10
  %16 = load ptr, ptr %6, align 8, !tbaa !9
  br label %17

17:                                               ; preds = %15, %13
  %18 = phi ptr [ %14, %13 ], [ %16, %15 ]
  store ptr %18, ptr %4, align 8
  br label %24

19:                                               ; preds = %3
  %20 = load ptr, ptr %5, align 8, !tbaa !9
  %21 = load ptr, ptr %6, align 8, !tbaa !9
  %22 = load i64, ptr %7, align 8, !tbaa !153
  %23 = call ptr @dcngettext(ptr noundef null, ptr noundef %20, ptr noundef %21, i64 noundef %22, i32 noundef 5) #12
  store ptr %23, ptr %4, align 8
  br label %24

24:                                               ; preds = %19, %17
  %25 = load ptr, ptr %4, align 8
  ret ptr %25
}

; Function Attrs: inlinehint nounwind uwtable
define internal ptr @_(ptr noundef %0) #8 {
  %2 = alloca ptr, align 8
  %3 = alloca ptr, align 8
  store ptr %0, ptr %3, align 8, !tbaa !9
  %4 = load ptr, ptr %3, align 8, !tbaa !9
  %5 = load i8, ptr %4, align 1, !tbaa !30
  %6 = icmp ne i8 %5, 0
  br i1 %6, label %8, label %7

7:                                                ; preds = %1
  store ptr @.str.29, ptr %2, align 8
  br label %16

8:                                                ; preds = %1
  %9 = load i32, ptr @git_gettext_enabled, align 4, !tbaa !11
  %10 = icmp ne i32 %9, 0
  br i1 %10, label %13, label %11

11:                                               ; preds = %8
  %12 = load ptr, ptr %3, align 8, !tbaa !9
  store ptr %12, ptr %2, align 8
  br label %16

13:                                               ; preds = %8
  %14 = load ptr, ptr %3, align 8, !tbaa !9
  %15 = call ptr @dcgettext(ptr noundef null, ptr noundef %14, i32 noundef 5) #12
  store ptr %15, ptr %2, align 8
  br label %16

16:                                               ; preds = %13, %11, %7
  %17 = load ptr, ptr %2, align 8
  ret ptr %17
}

; Function Attrs: nounwind uwtable
define internal void @show_rebase_information(ptr noundef %0, ptr noundef %1) #0 {
  %3 = alloca ptr, align 8
  %4 = alloca ptr, align 8
  %5 = alloca i32, align 4
  %6 = alloca i32, align 4
  %7 = alloca %struct.string_list, align 8
  %8 = alloca %struct.string_list, align 8
  store ptr %0, ptr %3, align 8, !tbaa !4
  store ptr %1, ptr %4, align 8, !tbaa !9
  %9 = load ptr, ptr %3, align 8, !tbaa !4
  %10 = getelementptr inbounds nuw %struct.wt_status, ptr %9, i32 0, i32 30
  %11 = getelementptr inbounds nuw %struct.wt_status_state, ptr %10, i32 0, i32 4
  %12 = load i32, ptr %11, align 8, !tbaa !226
  %13 = icmp ne i32 %12, 0
  br i1 %13, label %14, label %143

14:                                               ; preds = %2
  call void @llvm.lifetime.start.p0(i64 4, ptr %5) #12
  call void @llvm.lifetime.start.p0(i64 4, ptr %6) #12
  store i32 2, ptr %6, align 4, !tbaa !11
  call void @llvm.lifetime.start.p0(i64 40, ptr %7) #12
  call void @llvm.memset.p0.i64(ptr align 8 %7, i8 0, i64 40, i1 false)
  %15 = getelementptr inbounds { ptr, i64, i64, i8, [7 x i8], ptr }, ptr %7, i32 0, i32 3
  store i8 1, ptr %15, align 8
  call void @llvm.lifetime.start.p0(i64 40, ptr %8) #12
  call void @llvm.memset.p0.i64(ptr align 8 %8, i8 0, i64 40, i1 false)
  %16 = getelementptr inbounds { ptr, i64, i64, i8, [7 x i8], ptr }, ptr %8, i32 0, i32 3
  store i8 1, ptr %16, align 8
  %17 = call i32 @read_rebase_todolist(ptr noundef @.str.123, ptr noundef %7)
  %18 = call i32 @read_rebase_todolist(ptr noundef @.str.124, ptr noundef %8)
  %19 = icmp ne i32 %18, 0
  br i1 %19, label %20, label %24

20:                                               ; preds = %14
  %21 = load ptr, ptr %3, align 8, !tbaa !4
  %22 = load ptr, ptr %4, align 8, !tbaa !9
  %23 = call ptr @_(ptr noundef @.str.125)
  call void (ptr, ptr, ptr, ...) @status_printf_ln(ptr noundef %21, ptr noundef %22, ptr noundef %23)
  br label %24

24:                                               ; preds = %20, %14
  %25 = getelementptr inbounds nuw %struct.string_list, ptr %7, i32 0, i32 1
  %26 = load i64, ptr %25, align 8, !tbaa !295
  %27 = icmp eq i64 %26, 0
  br i1 %27, label %28, label %32

28:                                               ; preds = %24
  %29 = load ptr, ptr %3, align 8, !tbaa !4
  %30 = load ptr, ptr %4, align 8, !tbaa !9
  %31 = call ptr @_(ptr noundef @.str.126)
  call void (ptr, ptr, ptr, ...) @status_printf_ln(ptr noundef %29, ptr noundef %30, ptr noundef %31)
  br label %91

32:                                               ; preds = %24
  %33 = load ptr, ptr %3, align 8, !tbaa !4
  %34 = load ptr, ptr %4, align 8, !tbaa !9
  %35 = getelementptr inbounds nuw %struct.string_list, ptr %7, i32 0, i32 1
  %36 = load i64, ptr %35, align 8, !tbaa !295
  %37 = call ptr @Q_(ptr noundef @.str.127, ptr noundef @.str.128, i64 noundef %36)
  %38 = getelementptr inbounds nuw %struct.string_list, ptr %7, i32 0, i32 1
  %39 = load i64, ptr %38, align 8, !tbaa !295
  call void (ptr, ptr, ptr, ...) @status_printf_ln(ptr noundef %33, ptr noundef %34, ptr noundef %37, i64 noundef %39)
  %40 = getelementptr inbounds nuw %struct.string_list, ptr %7, i32 0, i32 1
  %41 = load i64, ptr %40, align 8, !tbaa !295
  %42 = load i32, ptr %6, align 4, !tbaa !11
  %43 = sext i32 %42 to i64
  %44 = icmp ugt i64 %41, %43
  br i1 %44, label %45, label %51

45:                                               ; preds = %32
  %46 = getelementptr inbounds nuw %struct.string_list, ptr %7, i32 0, i32 1
  %47 = load i64, ptr %46, align 8, !tbaa !295
  %48 = load i32, ptr %6, align 4, !tbaa !11
  %49 = sext i32 %48 to i64
  %50 = sub i64 %47, %49
  br label %52

51:                                               ; preds = %32
  br label %52

52:                                               ; preds = %51, %45
  %53 = phi i64 [ %50, %45 ], [ 0, %51 ]
  %54 = trunc i64 %53 to i32
  store i32 %54, ptr %5, align 4, !tbaa !11
  br label %55

55:                                               ; preds = %71, %52
  %56 = load i32, ptr %5, align 4, !tbaa !11
  %57 = sext i32 %56 to i64
  %58 = getelementptr inbounds nuw %struct.string_list, ptr %7, i32 0, i32 1
  %59 = load i64, ptr %58, align 8, !tbaa !295
  %60 = icmp ult i64 %57, %59
  br i1 %60, label %61, label %74

61:                                               ; preds = %55
  %62 = load ptr, ptr %3, align 8, !tbaa !4
  %63 = load ptr, ptr %4, align 8, !tbaa !9
  %64 = getelementptr inbounds nuw %struct.string_list, ptr %7, i32 0, i32 0
  %65 = load ptr, ptr %64, align 8, !tbaa !296
  %66 = load i32, ptr %5, align 4, !tbaa !11
  %67 = sext i32 %66 to i64
  %68 = getelementptr inbounds %struct.string_list_item, ptr %65, i64 %67
  %69 = getelementptr inbounds nuw %struct.string_list_item, ptr %68, i32 0, i32 0
  %70 = load ptr, ptr %69, align 8, !tbaa !285
  call void (ptr, ptr, ptr, ...) @status_printf_ln(ptr noundef %62, ptr noundef %63, ptr noundef @.str.129, ptr noundef %70)
  br label %71

71:                                               ; preds = %61
  %72 = load i32, ptr %5, align 4, !tbaa !11
  %73 = add nsw i32 %72, 1
  store i32 %73, ptr %5, align 4, !tbaa !11
  br label %55, !llvm.loop !309

74:                                               ; preds = %55
  %75 = getelementptr inbounds nuw %struct.string_list, ptr %7, i32 0, i32 1
  %76 = load i64, ptr %75, align 8, !tbaa !295
  %77 = load i32, ptr %6, align 4, !tbaa !11
  %78 = sext i32 %77 to i64
  %79 = icmp ugt i64 %76, %78
  br i1 %79, label %80, label %90

80:                                               ; preds = %74
  %81 = load ptr, ptr %3, align 8, !tbaa !4
  %82 = getelementptr inbounds nuw %struct.wt_status, ptr %81, i32 0, i32 23
  %83 = load i32, ptr %82, align 8, !tbaa !232
  %84 = icmp ne i32 %83, 0
  br i1 %84, label %85, label %90

85:                                               ; preds = %80
  %86 = load ptr, ptr %3, align 8, !tbaa !4
  %87 = load ptr, ptr %4, align 8, !tbaa !9
  %88 = call ptr @_(ptr noundef @.str.130)
  %89 = call ptr (ptr, ...) @git_path(ptr noundef @.str.123)
  call void (ptr, ptr, ptr, ...) @status_printf_ln(ptr noundef %86, ptr noundef %87, ptr noundef %88, ptr noundef %89)
  br label %90

90:                                               ; preds = %85, %80, %74
  br label %91

91:                                               ; preds = %90, %28
  %92 = getelementptr inbounds nuw %struct.string_list, ptr %8, i32 0, i32 1
  %93 = load i64, ptr %92, align 8, !tbaa !295
  %94 = icmp eq i64 %93, 0
  br i1 %94, label %95, label %99

95:                                               ; preds = %91
  %96 = load ptr, ptr %3, align 8, !tbaa !4
  %97 = load ptr, ptr %4, align 8, !tbaa !9
  %98 = call ptr @_(ptr noundef @.str.131)
  call void (ptr, ptr, ptr, ...) @status_printf_ln(ptr noundef %96, ptr noundef %97, ptr noundef %98)
  br label %142

99:                                               ; preds = %91
  %100 = load ptr, ptr %3, align 8, !tbaa !4
  %101 = load ptr, ptr %4, align 8, !tbaa !9
  %102 = getelementptr inbounds nuw %struct.string_list, ptr %8, i32 0, i32 1
  %103 = load i64, ptr %102, align 8, !tbaa !295
  %104 = call ptr @Q_(ptr noundef @.str.132, ptr noundef @.str.133, i64 noundef %103)
  %105 = getelementptr inbounds nuw %struct.string_list, ptr %8, i32 0, i32 1
  %106 = load i64, ptr %105, align 8, !tbaa !295
  call void (ptr, ptr, ptr, ...) @status_printf_ln(ptr noundef %100, ptr noundef %101, ptr noundef %104, i64 noundef %106)
  store i32 0, ptr %5, align 4, !tbaa !11
  br label %107

107:                                              ; preds = %129, %99
  %108 = load i32, ptr %5, align 4, !tbaa !11
  %109 = load i32, ptr %6, align 4, !tbaa !11
  %110 = icmp slt i32 %108, %109
  br i1 %110, label %111, label %117

111:                                              ; preds = %107
  %112 = load i32, ptr %5, align 4, !tbaa !11
  %113 = sext i32 %112 to i64
  %114 = getelementptr inbounds nuw %struct.string_list, ptr %8, i32 0, i32 1
  %115 = load i64, ptr %114, align 8, !tbaa !295
  %116 = icmp ult i64 %113, %115
  br label %117

117:                                              ; preds = %111, %107
  %118 = phi i1 [ false, %107 ], [ %116, %111 ]
  br i1 %118, label %119, label %132

119:                                              ; preds = %117
  %120 = load ptr, ptr %3, align 8, !tbaa !4
  %121 = load ptr, ptr %4, align 8, !tbaa !9
  %122 = getelementptr inbounds nuw %struct.string_list, ptr %8, i32 0, i32 0
  %123 = load ptr, ptr %122, align 8, !tbaa !296
  %124 = load i32, ptr %5, align 4, !tbaa !11
  %125 = sext i32 %124 to i64
  %126 = getelementptr inbounds %struct.string_list_item, ptr %123, i64 %125
  %127 = getelementptr inbounds nuw %struct.string_list_item, ptr %126, i32 0, i32 0
  %128 = load ptr, ptr %127, align 8, !tbaa !285
  call void (ptr, ptr, ptr, ...) @status_printf_ln(ptr noundef %120, ptr noundef %121, ptr noundef @.str.129, ptr noundef %128)
  br label %129

129:                                              ; preds = %119
  %130 = load i32, ptr %5, align 4, !tbaa !11
  %131 = add nsw i32 %130, 1
  store i32 %131, ptr %5, align 4, !tbaa !11
  br label %107, !llvm.loop !310

132:                                              ; preds = %117
  %133 = load ptr, ptr %3, align 8, !tbaa !4
  %134 = getelementptr inbounds nuw %struct.wt_status, ptr %133, i32 0, i32 23
  %135 = load i32, ptr %134, align 8, !tbaa !232
  %136 = icmp ne i32 %135, 0
  br i1 %136, label %137, label %141

137:                                              ; preds = %132
  %138 = load ptr, ptr %3, align 8, !tbaa !4
  %139 = load ptr, ptr %4, align 8, !tbaa !9
  %140 = call ptr @_(ptr noundef @.str.134)
  call void (ptr, ptr, ptr, ...) @status_printf_ln(ptr noundef %138, ptr noundef %139, ptr noundef %140)
  br label %141

141:                                              ; preds = %137, %132
  br label %142

142:                                              ; preds = %141, %95
  call void @string_list_clear(ptr noundef %8, i32 noundef 0)
  call void @string_list_clear(ptr noundef %7, i32 noundef 0)
  call void @llvm.lifetime.end.p0(i64 40, ptr %8) #12
  call void @llvm.lifetime.end.p0(i64 40, ptr %7) #12
  call void @llvm.lifetime.end.p0(i64 4, ptr %6) #12
  call void @llvm.lifetime.end.p0(i64 4, ptr %5) #12
  br label %143

143:                                              ; preds = %142, %2
  ret void
}