; Function Attrs: nounwind uwtable
define internal fastcc void @show_rebase_information(ptr noundef readonly captures(none) %0, ptr noundef %1) unnamed_addr #0 {
  %3 = alloca %struct.string_list, align 8
  %4 = alloca %struct.string_list, align 8
  %5 = getelementptr inbounds nuw i8, ptr %0, i64 856
  %6 = load i32, ptr %5, align 8, !tbaa !197
  %.not = icmp eq i32 %6, 0
  br i1 %.not, label %75, label %7

7:                                                ; preds = %2
  call void @llvm.lifetime.start.p0(i64 40, ptr nonnull %3) #20
  call void @llvm.memset.p0.i64(ptr noundef nonnull align 8 dereferenceable(40) %3, i8 0, i64 40, i1 false)
  %8 = getelementptr inbounds nuw i8, ptr %3, i64 24
  store i8 1, ptr %8, align 8
  call void @llvm.lifetime.start.p0(i64 40, ptr nonnull %4) #20
  call void @llvm.memset.p0.i64(ptr noundef nonnull align 8 dereferenceable(40) %4, i8 0, i64 40, i1 false)
  %9 = getelementptr inbounds nuw i8, ptr %4, i64 24
  store i8 1, ptr %9, align 8
  %10 = call fastcc i32 @read_rebase_todolist(ptr noundef nonnull @.str.123, ptr noundef %3)
  %11 = call fastcc i32 @read_rebase_todolist(ptr noundef nonnull @.str.124, ptr noundef %4)
  %.not36 = icmp eq i32 %11, 0
  br i1 %.not36, label %16, label %12

12:                                               ; preds = %7
  %13 = load i32, ptr @git_gettext_enabled, align 4, !tbaa !128
  %.not4.i = icmp eq i32 %13, 0
  br i1 %.not4.i, label %_.exit, label %14

14:                                               ; preds = %12
  %15 = call ptr @dcgettext(ptr noundef null, ptr noundef nonnull @.str.125, i32 noundef 5) #20
  br label %_.exit

_.exit:                                           ; preds = %12, %14
  %.0.i = phi ptr [ %15, %14 ], [ @.str.125, %12 ]
  call void (ptr, ptr, ptr, ...) @status_printf_ln(ptr noundef nonnull %0, ptr noundef %1, ptr noundef %.0.i)
  br label %16

16:                                               ; preds = %_.exit, %7
  %17 = getelementptr inbounds nuw i8, ptr %3, i64 8
  %18 = load i64, ptr %17, align 8, !tbaa !268
  %19 = icmp eq i64 %18, 0
  %20 = load i32, ptr @git_gettext_enabled, align 4, !tbaa !128
  %.not4.i39 = icmp eq i32 %20, 0
  br i1 %19, label %21, label %24

21:                                               ; preds = %16
  br i1 %.not4.i39, label %_.exit41, label %22

22:                                               ; preds = %21
  %23 = call ptr @dcgettext(ptr noundef null, ptr noundef nonnull @.str.126, i32 noundef 5) #20
  br label %_.exit41

_.exit41:                                         ; preds = %21, %22
  %.0.i40 = phi ptr [ %23, %22 ], [ @.str.126, %21 ]
  call void (ptr, ptr, ptr, ...) @status_printf_ln(ptr noundef nonnull %0, ptr noundef %1, ptr noundef %.0.i40)
  br label %48

24:                                               ; preds = %16
  br i1 %.not4.i39, label %25, label %28

25:                                               ; preds = %24
  %26 = icmp eq i64 %18, 1
  %27 = select i1 %26, ptr @.str.127, ptr @.str.128
  br label %Q_.exit

28:                                               ; preds = %24
  %29 = call ptr @dcngettext(ptr noundef null, ptr noundef nonnull @.str.127, ptr noundef nonnull @.str.128, i64 noundef range(i64 1, 0) %18, i32 noundef 5) #20
  %.pre = load i64, ptr %17, align 8, !tbaa !268
  br label %Q_.exit

Q_.exit:                                          ; preds = %25, %28
  %30 = phi i64 [ %.pre, %28 ], [ %18, %25 ]
  %.0.i42 = phi ptr [ %29, %28 ], [ %27, %25 ]
  call void (ptr, ptr, ptr, ...) @status_printf_ln(ptr noundef nonnull %0, ptr noundef %1, ptr noundef %.0.i42, i64 noundef %30)
  %31 = load i64, ptr %17, align 8, !tbaa !268
  %32 = call i64 @llvm.usub.sat.i64(i64 %31, i64 2)
  %sext = shl i64 %32, 32
  %33 = ashr exact i64 %sext, 32
  %34 = icmp ugt i64 %31, %33
  br i1 %34, label %.lr.ph, label %._crit_edge

.lr.ph:                                           ; preds = %Q_.exit, %.lr.ph
  %indvars.iv = phi i64 [ %indvars.iv.next, %.lr.ph ], [ %33, %Q_.exit ]
  %35 = load ptr, ptr %3, align 8, !tbaa !269
  %36 = getelementptr inbounds %struct.string_list_item, ptr %35, i64 %indvars.iv
  %37 = load ptr, ptr %36, align 8, !tbaa !203
  call void (ptr, ptr, ptr, ...) @status_printf_ln(ptr noundef nonnull %0, ptr noundef %1, ptr noundef nonnull @.str.129, ptr noundef %37)
  %indvars.iv.next = add nuw nsw i64 %indvars.iv, 1
  %.pr = load i64, ptr %17, align 8, !tbaa !268
  %38 = icmp ugt i64 %.pr, %indvars.iv.next
  br i1 %38, label %.lr.ph, label %._crit_edge, !llvm.loop !276

._crit_edge:                                      ; preds = %.lr.ph, %Q_.exit
  %.lcssa = phi i64 [ %31, %Q_.exit ], [ %.pr, %.lr.ph ]
  %39 = icmp ugt i64 %.lcssa, 2
  br i1 %39, label %40, label %48

40:                                               ; preds = %._crit_edge
  %41 = getelementptr inbounds nuw i8, ptr %0, i64 808
  %42 = load i32, ptr %41, align 8, !tbaa !219
  %.not37 = icmp eq i32 %42, 0
  br i1 %.not37, label %48, label %43

43:                                               ; preds = %40
  %44 = load i32, ptr @git_gettext_enabled, align 4, !tbaa !128
  %.not4.i43 = icmp eq i32 %44, 0
  br i1 %.not4.i43, label %_.exit45, label %45

45:                                               ; preds = %43
  %46 = call ptr @dcgettext(ptr noundef null, ptr noundef nonnull @.str.130, i32 noundef 5) #20
  br label %_.exit45

_.exit45:                                         ; preds = %43, %45
  %.0.i44 = phi ptr [ %46, %45 ], [ @.str.130, %43 ]
  %47 = call ptr (ptr, ...) @git_path(ptr noundef nonnull @.str.123)
  call void (ptr, ptr, ptr, ...) @status_printf_ln(ptr noundef nonnull %0, ptr noundef %1, ptr noundef %.0.i44, ptr noundef %47)
  br label %48

48:                                               ; preds = %._crit_edge, %40, %_.exit45, %_.exit41
  %49 = getelementptr inbounds nuw i8, ptr %4, i64 8
  %50 = load i64, ptr %49, align 8, !tbaa !268
  %51 = icmp eq i64 %50, 0
  %52 = load i32, ptr @git_gettext_enabled, align 4, !tbaa !128
  %.not4.i46 = icmp eq i32 %52, 0
  br i1 %51, label %53, label %54

53:                                               ; preds = %48
  br i1 %.not4.i46, label %.sink.split, label %.sink.split.sink.split

54:                                               ; preds = %48
  br i1 %.not4.i46, label %55, label %58

55:                                               ; preds = %54
  %56 = icmp eq i64 %50, 1
  %57 = select i1 %56, ptr @.str.132, ptr @.str.133
  br label %Q_.exit51

58:                                               ; preds = %54
  %59 = call ptr @dcngettext(ptr noundef null, ptr noundef nonnull @.str.132, ptr noundef nonnull @.str.133, i64 noundef range(i64 1, 0) %50, i32 noundef 5) #20
  %.pre64 = load i64, ptr %49, align 8, !tbaa !268
  br label %Q_.exit51

Q_.exit51:                                        ; preds = %55, %58
  %60 = phi i64 [ %.pre64, %58 ], [ %50, %55 ]
  %.0.i50 = phi ptr [ %59, %58 ], [ %57, %55 ]
  call void (ptr, ptr, ptr, ...) @status_printf_ln(ptr noundef nonnull %0, ptr noundef %1, ptr noundef %.0.i50, i64 noundef %60)
  %61 = load i64, ptr %49, align 8
  %.not59 = icmp eq i64 %61, 0
  br i1 %.not59, label %._crit_edge58, label %.lr.ph57

.lr.ph57:                                         ; preds = %Q_.exit51, %.lr.ph57
  %62 = phi i1 [ false, %.lr.ph57 ], [ true, %Q_.exit51 ]
  %indvars.iv61 = phi i64 [ 1, %.lr.ph57 ], [ 0, %Q_.exit51 ]
  %63 = load ptr, ptr %4, align 8, !tbaa !269
  %64 = getelementptr inbounds nuw %struct.string_list_item, ptr %63, i64 %indvars.iv61
  %65 = load ptr, ptr %64, align 8, !tbaa !203
  call void (ptr, ptr, ptr, ...) @status_printf_ln(ptr noundef nonnull %0, ptr noundef %1, ptr noundef nonnull @.str.129, ptr noundef %65)
  %indvars.iv.next62 = add nuw nsw i64 %indvars.iv61, 1
  %66 = load i64, ptr %49, align 8
  %67 = icmp ugt i64 %66, %indvars.iv.next62
  %68 = select i1 %62, i1 %67, i1 false
  br i1 %68, label %.lr.ph57, label %._crit_edge58, !llvm.loop !277

._crit_edge58:                                    ; preds = %.lr.ph57, %Q_.exit51
  %69 = getelementptr inbounds nuw i8, ptr %0, i64 808
  %70 = load i32, ptr %69, align 8, !tbaa !219
  %.not38 = icmp eq i32 %70, 0
  br i1 %.not38, label %74, label %71

71:                                               ; preds = %._crit_edge58
  %72 = load i32, ptr @git_gettext_enabled, align 4, !tbaa !128
  %.not4.i52 = icmp eq i32 %72, 0
  br i1 %.not4.i52, label %.sink.split, label %.sink.split.sink.split

.sink.split.sink.split:                           ; preds = %71, %53
  %.str.134.sink = phi ptr [ @.str.131, %53 ], [ @.str.134, %71 ]
  %73 = call ptr @dcgettext(ptr noundef null, ptr noundef nonnull %.str.134.sink, i32 noundef 5) #20
  br label %.sink.split

.sink.split:                                      ; preds = %.sink.split.sink.split, %71, %53
  %.0.i53.sink = phi ptr [ @.str.131, %53 ], [ @.str.134, %71 ], [ %73, %.sink.split.sink.split ]
  call void (ptr, ptr, ptr, ...) @status_printf_ln(ptr noundef nonnull %0, ptr noundef %1, ptr noundef %.0.i53.sink)
  br label %74

74:                                               ; preds = %.sink.split, %._crit_edge58
  call void @string_list_clear(ptr noundef nonnull %4, i32 noundef 0) #20
  call void @string_list_clear(ptr noundef nonnull %3, i32 noundef 0) #20
  call void @llvm.lifetime.end.p0(i64 40, ptr nonnull %4) #20
  call void @llvm.lifetime.end.p0(i64 40, ptr nonnull %3) #20
  br label %75

75:                                               ; preds = %74, %2
  ret void
}